(dp0
S'C_1435578861'
p1
S'F_82'
p2
sS'C_1469231264'
p3
S'F_88'
p4
sS'C_5251973898'
p5
S'F_24'
p6
sS'C_4044110270'
p7
S'F_28'
p8
sS'C_481764033'
p9
S'F_65'
p10
sS'C_461789813'
p11
S'F_73'
p12
sS'C_254665578'
p13
S'F_50'
p14
sS'C_249087971'
p15
S'F_32'
p16
sS'C_456086559'
p17
S'F_40'
p18
sS'C_1637604205'
p19
S'F_42'
p20
sS'C_1140768187'
p21
S'F_68'
p22
sS'C_4723830191'
p23
S'F_54'
p24
sS'C_429231029'
p25
S'F_1'
p26
sS'C_308923925'
p27
S'F_43'
p28
sS'C_2228386610'
p29
S'F_74'
p30
sS'C_1820420857'
p31
S'F_95'
p32
sS'C_1111621358'
p33
S'F_66'
p34
sS'C_431610663'
p35
S'F_15'
p36
sS'C_3756191723'
p37
S'F_69'
p38
sS'C_573433807'
p39
S'F_5'
p40
sS'C_3370075981'
p41
S'F_48'
p42
sS'C_1842803351'
p43
S'F_13'
p44
sS'C_461755229'
p45
S'F_18'
p46
sS'C_1454651965'
p47
S'F_17'
p48
sS'C_5250122789'
p49
S'F_60'
p50
sS'C_298831002'
p51
S'F_9'
p52
sS'C_620136187'
p53
S'F_51'
p54
sS'C_3304182889'
p55
S'F_29'
p56
sS'C_456108237'
p57
S'F_78'
p58
sS'C_459554627'
p59
S'F_27'
p60
sS'C_1521036692'
p61
S'F_55'
p62
sS'C_3476360246'
p63
S'F_46'
p64
sS'C_421264366'
p65
S'F_70'
p66
sS'C_465232515'
p67
S'F_94'
p68
sS'C_431606331'
p69
S'F_84'
p70
sS'C_6194696870'
p71
S'F_79'
p72
sS'C_1614268206'
p73
S'F_80'
p74
sS'C_1836940335'
p75
S'F_72'
p76
sS'C_1836940333'
p77
S'F_62'
p78
sS'C_1523537189'
p79
S'F_58'
p80
sS'C_3428358309'
p81
S'F_6'
p82
sS'C_459793755'
p83
S'F_26'
p84
sS'C_2228426725'
p85
S'F_85'
p86
sS'C_3356628906'
p87
S'F_23'
p88
sS'C_1521158041'
p89
S'F_93'
p90
sS'C_296030007'
p91
S'F_90'
p92
sS'C_306834667'
p93
S'F_76'
p94
sS'C_1111760594'
p95
S'F_75'
p96
sS'C_459752716'
p97
S'F_63'
p98
sS'C_5329111671'
p99
S'F_4'
p100
sS'C_2132469972'
p101
S'F_7'
p102
sS'C_249143751'
p103
S'F_97'
p104
sS'C_3355894522'
p105
S'F_0'
p106
sS'C_429729099'
p107
S'F_30'
p108
sS'C_461754797'
p109
S'F_91'
p110
sS'C_1523536993'
p111
S'F_8'
p112
sS'C_432501735'
p113
S'F_92'
p114
sS'C_249589809'
p115
S'F_98'
p116
sS'C_4353493464'
p117
S'F_10'
p118
sS'C_1328155425'
p119
S'F_25'
p120
sS'C_456156693'
p121
S'F_20'
p122
sS'C_426962409'
p123
S'F_31'
p124
sS'C_3416355497'
p125
S'F_99'
p126
sS'C_1837284744'
p127
S'F_21'
p128
sS'C_1650305517'
p129
S'F_45'
p130
sS'C_246171013'
p131
S'F_71'
p132
sS'C_1447805104'
p133
S'F_49'
p134
sS'C_442065730'
p135
S'F_11'
p136
sS'C_767436696'
p137
S'F_33'
p138
sS'C_3820268557'
p139
S'F_59'
p140
sS'C_1857029065'
p141
S'F_41'
p142
sS'C_456029953'
p143
S'F_44'
p144
sS'C_60952256'
p145
S'F_37'
p146
sS'C_60952254'
p147
S'F_14'
p148
sS'C_427593212'
p149
S'F_12'
p150
sS'C_456181128'
p151
S'F_52'
p152
sS'C_4685633735'
p153
S'F_36'
p154
sS'C_343668779'
p155
S'F_22'
p156
sS'C_431610824'
p157
S'F_89'
p158
sS'C_3355894513'
p159
S'F_57'
p160
sS'C_2223753092'
p161
S'F_77'
p162
sS'C_767436688'
p163
S'F_87'
p164
sS'C_456156779'
p165
S'F_35'
p166
sS'C_447079597'
p167
S'F_38'
p168
sS'C_429231006'
p169
S'F_83'
p170
sS'C_3527330444'
p171
S'F_39'
p172
sS'C_955901450'
p173
S'F_34'
p174
sS'C_1521157936'
p175
S'F_3'
p176
sS'C_334473863'
p177
S'F_47'
p178
sS'C_341649085'
p179
S'F_53'
p180
sS'C_486964297'
p181
S'F_64'
p182
sS'C_3800594551'
p183
S'F_61'
p184
sS'C_1522655816'
p185
S'F_56'
p186
sS'C_343316188'
p187
S'F_81'
p188
sS'C_429415724'
p189
S'F_19'
p190
sS'C_3768827207'
p191
S'F_16'
p192
sS'C_456181242'
p193
S'F_86'
p194
sS'C_618529326'
p195
S'F_96'
p196
sS'C_1516435164'
p197
S'F_67'
p198
sS'C_430043662'
p199
S'F_2'
p200
s.