(dp0
S'F_29'
p1
S'edge68:9001'
p2
sS'F_28'
p3
S'edge18:9001'
p4
sS'F_23'
p5
S'edge97:9001'
p6
sS'F_22'
p7
S'edge83:9001'
p8
sS'F_21'
p9
S'edge27:9001'
p10
sS'F_20'
p11
S'edge19:9001'
p12
sS'F_27'
p13
S'edge84:9001'
p14
sS'F_26'
p15
S'edge78:9001'
p16
sS'F_25'
p17
S'edge29:9001'
p18
sS'F_24'
p19
S'edge81:9001'
p20
sS'F_4'
p21
S'edge31:9001'
p22
sS'F_5'
p23
S'edge41:9001'
p24
sS'F_6'
p25
S'edge42:9001'
p26
sS'F_7'
p27
S'edge75:9001'
p28
sS'F_0'
p29
S'edge90:9001'
p30
sS'F_1'
p31
S'edge91:9001'
p32
sS'F_2'
p33
S'edge56:9001'
p34
sS'F_3'
p35
S'edge10:9001'
p36
sS'F_8'
p37
S'edge94:9001'
p38
sS'F_9'
p39
S'edge51:9001'
p40
sS'F_98'
p41
S'edge25:9001'
p42
sS'F_99'
p43
S'edge7:9001'
p44
sS'F_96'
p45
S'edge55:9001'
p46
sS'F_97'
p47
S'edge8:9001'
p48
sS'F_94'
p49
S'edge40:9001'
p50
sS'F_95'
p51
S'edge6:9001'
p52
sS'F_92'
p53
S'edge36:9001'
p54
sS'F_93'
p55
S'edge79:9001'
p56
sS'F_90'
p57
S'edge99:9001'
p58
sS'F_91'
p59
S'edge72:9001'
p60
sS'F_16'
p61
S'edge4:9001'
p62
sS'F_17'
p63
S'edge57:9001'
p64
sS'F_14'
p65
S'edge67:9001'
p66
sS'F_15'
p67
S'edge48:9001'
p68
sS'F_12'
p69
S'edge9:9001'
p70
sS'F_13'
p71
S'edge58:9001'
p72
sS'F_10'
p73
S'edge22:9001'
p74
sS'F_11'
p75
S'edge37:9001'
p76
sS'F_18'
p77
S'edge32:9001'
p78
sS'F_19'
p79
S'edge61:9001'
p80
sS'F_74'
p81
S'edge86:9001'
p82
sS'F_75'
p83
S'edge70:9001'
p84
sS'F_76'
p85
S'edge35:9001'
p86
sS'F_77'
p87
S'edge46:9001'
p88
sS'F_70'
p89
S'edge5:9001'
p90
sS'F_71'
p91
S'edge76:9001'
p92
sS'F_72'
p93
S'edge49:9001'
p94
sS'F_73'
p95
S'edge45:9001'
p96
sS'F_78'
p97
S'edge74:9001'
p98
sS'F_79'
p99
S'edge64:9001'
p100
sS'F_89'
p101
S'edge28:9001'
p102
sS'F_88'
p103
S'edge98:9001'
p104
sS'F_81'
p105
S'edge80:9001'
p106
sS'F_80'
p107
S'edge95:9001'
p108
sS'F_83'
p109
S'edge71:9001'
p110
sS'F_82'
p111
S'edge24:9001'
p112
sS'F_85'
p113
S'edge39:9001'
p114
sS'F_84'
p115
S'edge100:9001'
p116
sS'F_87'
p117
S'edge82:9001'
p118
sS'F_86'
p119
S'edge20:9001'
p120
sS'F_67'
p121
S'edge93:9001'
p122
sS'F_66'
p123
S'edge69:9001'
p124
sS'F_65'
p125
S'edge11:9001'
p126
sS'F_64'
p127
S'edge47:9001'
p128
sS'F_63'
p129
S'edge65:9001'
p130
sS'F_62'
p131
S'edge17:9001'
p132
sS'F_61'
p133
S'edge96:9001'
p134
sS'F_60'
p135
S'edge53:9001'
p136
sS'F_69'
p137
S'edge14:9001'
p138
sS'F_68'
p139
S'edge44:9001'
p140
sS'F_52'
p141
S'edge77:9001'
p142
sS'F_53'
p143
S'edge85:9001'
p144
sS'F_50'
p145
S'edge43:9001'
p146
sS'F_51'
p147
S'edge34:9001'
p148
sS'F_56'
p149
S'edge66:9001'
p150
sS'F_57'
p151
S'edge88:9001'
p152
sS'F_54'
p153
S'edge30:9001'
p154
sS'F_55'
p155
S'edge54:9001'
p156
sS'F_58'
p157
S'edge89:9001'
p158
sS'F_59'
p159
S'edge23:9001'
p160
sS'F_49'
p161
S'edge26:9001'
p162
sS'F_48'
p163
S'edge21:9001'
p164
sS'F_45'
p165
S'edge63:9001'
p166
sS'F_44'
p167
S'edge15:9001'
p168
sS'F_47'
p169
S'edge73:9001'
p170
sS'F_46'
p171
S'edge13:9001'
p172
sS'F_41'
p173
S'edge62:9001'
p174
sS'F_40'
p175
S'edge60:9001'
p176
sS'F_43'
p177
S'edge59:9001'
p178
sS'F_42'
p179
S'edge38:9001'
p180
sS'F_38'
p181
S'edge50:9001'
p182
sS'F_39'
p183
S'edge12:9001'
p184
sS'F_30'
p185
S'edge87:9001'
p186
sS'F_31'
p187
S'edge3:9001'
p188
sS'F_32'
p189
S'edge2:9001'
p190
sS'F_33'
p191
S'edge92:9001'
p192
sS'F_34'
p193
S'edge16:9001'
p194
sS'F_35'
p195
S'edge52:9001'
p196
sS'F_36'
p197
S'edge1:9001'
p198
sS'F_37'
p199
S'edge33:9001'
p200
s.